target datalayout = "e-m:e-p270:32:32-p271:32:32-p272:64:64-i64:64-i128:128-f80:128-n8:16:32:64-S128"
target triple = "x86_64-unknown-linux-gnu"

%"class.icu_75::MaybeStackArray" = type <{ ptr, i32, i8, [40 x i8], [3 x i8] }>
%"class.icu_75::LocaleBuilder" = type { %"class.icu_75::UObject", i32, [9 x i8], [5 x i8], [4 x i8], ptr, ptr }
%"class.icu_75::UObject" = type { ptr }
%"class.icu_75::CharString" = type { %"class.icu_75::MaybeStackArray", i32, [4 x i8] }

@_ZN6icu_7515MaybeStackArrayIcLi40EED1Ev = weak_odr unnamed_addr alias void (ptr), ptr @_ZN6icu_7515MaybeStackArrayIcLi40EED2Ev

; Function Attrs: mustprogress nounwind uwtable
define noundef nonnull align 8 dereferenceable(48) ptr @_ZN6icu_7513LocaleBuilder15clearExtensionsEv(ptr noundef nonnull align 8 dereferenceable(48) %this) #0 align 2 {
entry:
  %this.addr = alloca ptr, align 8
  store ptr %this, ptr %this.addr, align 8
  %this1 = load ptr, ptr %this.addr, align 8
  %extensions_ = getelementptr inbounds %"class.icu_75::LocaleBuilder", ptr %this1, i32 0, i32 6
  %0 = load ptr, ptr %extensions_, align 8
  %isnull = icmp eq ptr %0, null
  br i1 %isnull, label %delete.end, label %delete.notnull

delete.notnull:                                   ; preds = %entry
  %vtable = load ptr, ptr %0, align 8
  %vfn = getelementptr inbounds ptr, ptr %vtable, i64 1
  %1 = load ptr, ptr %vfn, align 8
  call void %1(ptr noundef nonnull align 8 dereferenceable(217) %0) #9
  br label %delete.end

delete.end:                                       ; preds = %delete.notnull, %entry
  %extensions_2 = getelementptr inbounds %"class.icu_75::LocaleBuilder", ptr %this1, i32 0, i32 6
  store ptr null, ptr %extensions_2, align 8
  ret ptr %this1
}

; Function Attrs: mustprogress nounwind uwtable
define linkonce_odr void @_ZN6icu_7510CharStringD2Ev(ptr noundef nonnull align 8 dereferenceable(60) %this) unnamed_addr #0 comdat align 2 {
entry:
  %this.addr = alloca ptr, align 8
  store ptr %this, ptr %this.addr, align 8
  %this1 = load ptr, ptr %this.addr, align 8
  %buffer = getelementptr inbounds %"class.icu_75::CharString", ptr %this1, i32 0, i32 0
  call void @_ZN6icu_7515MaybeStackArrayIcLi40EED1Ev(ptr noundef nonnull align 8 dereferenceable(53) %buffer) #9
  ret void
}

; Function Attrs: mustprogress uwtable
define noundef nonnull align 8 dereferenceable(48) ptr @_ZN6icu_7513LocaleBuilder5clearEv(ptr noundef nonnull align 8 dereferenceable(48) %this) #1 align 2 {
entry:
  %this.addr = alloca ptr, align 8
  store ptr %this, ptr %this.addr, align 8
  %this1 = load ptr, ptr %this.addr, align 8
  %status_ = getelementptr inbounds %"class.icu_75::LocaleBuilder", ptr %this1, i32 0, i32 1
  store i32 0, ptr %status_, align 8
  %language_ = getelementptr inbounds %"class.icu_75::LocaleBuilder", ptr %this1, i32 0, i32 2
  %arrayidx = getelementptr inbounds [9 x i8], ptr %language_, i64 0, i64 0
  store i8 0, ptr %arrayidx, align 4
  %script_ = getelementptr inbounds %"class.icu_75::LocaleBuilder", ptr %this1, i32 0, i32 3
  %arrayidx2 = getelementptr inbounds [5 x i8], ptr %script_, i64 0, i64 0
  store i8 0, ptr %arrayidx2, align 1
  %region_ = getelementptr inbounds %"class.icu_75::LocaleBuilder", ptr %this1, i32 0, i32 4
  %arrayidx3 = getelementptr inbounds [4 x i8], ptr %region_, i64 0, i64 0
  store i8 0, ptr %arrayidx3, align 2
  %variant_ = getelementptr inbounds %"class.icu_75::LocaleBuilder", ptr %this1, i32 0, i32 5
  %0 = load ptr, ptr %variant_, align 8
  %isnull = icmp eq ptr %0, null
  br i1 %isnull, label %delete.end, label %delete.notnull

delete.notnull:                                   ; preds = %entry
  call void @_ZN6icu_7510CharStringD2Ev(ptr noundef nonnull align 8 dereferenceable(60) %0) #9
  call void @_ZN6icu_757UMemorydlEPv(ptr noundef %0) #9
  br label %delete.end

delete.end:                                       ; preds = %delete.notnull, %entry
  %variant_4 = getelementptr inbounds %"class.icu_75::LocaleBuilder", ptr %this1, i32 0, i32 5
  store ptr null, ptr %variant_4, align 8
  %call = call noundef nonnull align 8 dereferenceable(48) ptr @_ZN6icu_7513LocaleBuilder15clearExtensionsEv(ptr noundef nonnull align 8 dereferenceable(48) %this1)
  ret ptr %this1
}