; Function Attrs: mustprogress uwtable
define noundef nonnull align 8 dereferenceable(48) ptr @_ZN6icu_7513LocaleBuilder5clearEv(ptr noundef nonnull returned align 8 dereferenceable(48) %this) local_unnamed_addr #1 align 2 {
entry:
  %status_ = getelementptr inbounds i8, ptr %this, i64 8
  store i32 0, ptr %status_, align 8
  %language_ = getelementptr inbounds i8, ptr %this, i64 12
  store i8 0, ptr %language_, align 4
  %script_ = getelementptr inbounds i8, ptr %this, i64 21
  store i8 0, ptr %script_, align 1
  %region_ = getelementptr inbounds i8, ptr %this, i64 26
  store i8 0, ptr %region_, align 2
  %variant_ = getelementptr inbounds i8, ptr %this, i64 32
  %0 = load ptr, ptr %variant_, align 8
  %isnull = icmp eq ptr %0, null
  br i1 %isnull, label %delete.end, label %delete.notnull

delete.notnull:                                   ; preds = %entry
  tail call void @_ZN6icu_7515MaybeStackArrayIcLi40EED1Ev(ptr noundef nonnull align 8 dereferenceable(53) %0) #13
  tail call void @_ZN6icu_757UMemorydlEPv(ptr noundef nonnull %0) #13
  br label %delete.end

delete.end:                                       ; preds = %delete.notnull, %entry
  store ptr null, ptr %variant_, align 8
  %extensions_.i = getelementptr inbounds i8, ptr %this, i64 40
  %1 = load ptr, ptr %extensions_.i, align 8
  %isnull.i = icmp eq ptr %1, null
  br i1 %isnull.i, label %_ZN6icu_7513LocaleBuilder15clearExtensionsEv.exit, label %delete.notnull.i

delete.notnull.i:                                 ; preds = %delete.end
  %vtable.i = load ptr, ptr %1, align 8
  %vfn.i = getelementptr inbounds i8, ptr %vtable.i, i64 8
  %2 = load ptr, ptr %vfn.i, align 8
  tail call void %2(ptr noundef nonnull align 8 dereferenceable(217) %1) #13
  br label %_ZN6icu_7513LocaleBuilder15clearExtensionsEv.exit

_ZN6icu_7513LocaleBuilder15clearExtensionsEv.exit: ; preds = %delete.end, %delete.notnull.i
  store ptr null, ptr %extensions_.i, align 8
  ret ptr %this
}